-----BEGIN RSA PRIVATE KEY-----
MIICXQIBAAKBgQCgZEz+LPepCUx7r4m0FId/oHBQeTetlwcoCZkObbCphsHpSsph
1kD3+wYbbS250vqgZMo7A7nYeQP0AvmGGNZOgdK6txVj21S5amG4kTbKKMbruPIs
3koNXddrzb2c3/XeDyGRG6lOKcYGxK/yFwviX5IaxduUnYdhfnHxhYeZAwIDAQAB
AoGBAICueCclJL31u+sv9qcIIX3/1px55HXdSdyRdr7gunAIseLeImlEYHOUbl3q
xljkMDgnJSkb4CsRTF6lVFSF8MleZ+tV6otsfXctXKab2VgrMINep2CRRbIV0sl8
tgWf2/1Riw00ZRpUBTRhBhW2LXfST9SsujLLXdY7SiAE/7UBAkEA00826GvOvzd3
B3v9Er6s8n5qa8CVFV97+zmtB5fxLjTORO3kdEHhYiER6285N3EcWanssLuL+PXe
VMkRTot9oQJBAMJQSXNzkk9jSxjujgRrR6pGBPAM7NRRUlPFnTOPgaNzmoDgWL0M
j3WjFbsw1i6jcx5jikZdFynkSwyt02yF7CMCQHnoHGRQNfGJHSl7NZCH4pzvo5PQ
gfHXqV5RcuqLlP+0RT/tAryzeUS0kXMDMr4yikmMR9naCTGzHvZJHavzu6ECQQCS
v/3pAnSSHkQ+DRQWhEr4bq8V+Dz4UH5jpBAIO65Fmm4qPMTn6c+CoWstF0H6sRik
77ojT/TJf4+qgLD2+eGPAkAHEWortgTOtYmzc3WZXEGQLB+8M3gNLxC/ogy7t2kh
F2yCn6ztKALQD20KazVFHsfoeF/0ypLXyU51pLhl9FqD
-----END RSA PRIVATE KEY-----
Certificate:
    Data:
        Version: 3 (0x2)
        Serial Number: 3 (0x3)
    Signature Algorithm: sha256WithRSAEncryption
        Issuer: C=KR, CN=hanXen
        Validity
            Not Before: Mar  1 00:00:00 2014 GMT
            Not After : Feb 27 00:00:00 2024 GMT
        Subject: C=KR, CN=twitter.com
        Subject Public Key Info:
            Public Key Algorithm: rsaEncryption
                Public-Key: (1024 bit)
                Modulus:
                    00:a0:64:4c:fe:2c:f7:a9:09:4c:7b:af:89:b4:14:
                    87:7f:a0:70:50:79:37:ad:97:07:28:09:99:0e:6d:
                    b0:a9:86:c1:e9:4a:ca:61:d6:40:f7:fb:06:1b:6d:
                    2d:b9:d2:fa:a0:64:ca:3b:03:b9:d8:79:03:f4:02:
                    f9:86:18:d6:4e:81:d2:ba:b7:15:63:db:54:b9:6a:
                    61:b8:91:36:ca:28:c6:eb:b8:f2:2c:de:4a:0d:5d:
                    d7:6b:cd:bd:9c:df:f5:de:0f:21:91:1b:a9:4e:29:
                    c6:06:c4:af:f2:17:0b:e2:5f:92:1a:c5:db:94:9d:
                    87:61:7e:71:f1:85:87:99:03
                Exponent: 65537 (0x10001)
        X509v3 extensions:
            X509v3 Basic Constraints: 
                CA:FALSE
            Netscape Comment: 
                OpenSSL Generated Certificate
            X509v3 Subject Key Identifier: 
                B2:E6:D5:0F:C0:50:49:81:4B:48:A1:F3:29:FD:05:A9:BA:F5:01:80
            X509v3 Authority Key Identifier: 
                DirName:/C=KR/CN=hanXen
                serial:97:2E:F6:09:D4:EA:54:44

    Signature Algorithm: sha256WithRSAEncryption
         79:0a:2f:12:6a:6d:22:9d:b8:c3:d0:ea:e1:78:79:bb:e3:9e:
         bb:ca:6b:69:fa:16:d4:b0:dc:6a:d8:5c:59:75:34:a5:eb:76:
         ca:b2:62:98:d9:e3:7b:ff:00:d2:85:88:56:cd:29:f2:f2:1c:
         35:41:ae:89:1e:bd:6f:10:00:47:e0:94:6b:8c:40:cb:d6:ed:
         25:53:e7:f8:64:d6:6f:d7:bc:2f:64:8c:7d:b5:81:e4:e5:91:
         ce:3e:52:bd:26:17:f6:2b:b0:88:dd:80:23:4c:10:38:03:ba:
         73:a1:c4:f2:4a:81:b5:eb:66:ec:12:00:1b:c5:c4:f8:d9:b9:
         4d:07
-----BEGIN CERTIFICATE-----
MIICUTCCAbqgAwIBAgIBAzANBgkqhkiG9w0BAQsFADAeMQswCQYDVQQGEwJLUjEP
MA0GA1UEAwwGaGFuWGVuMCIYDzIwMTQwMzAxMDAwMDAwWhgPMjAyNDAyMjcwMDAw
MDBaMCMxCzAJBgNVBAYTAktSMRQwEgYDVQQDDAt0d2l0dGVyLmNvbTCBnzANBgkq
hkiG9w0BAQEFAAOBjQAwgYkCgYEAoGRM/iz3qQlMe6+JtBSHf6BwUHk3rZcHKAmZ
Dm2wqYbB6UrKYdZA9/sGG20tudL6oGTKOwO52HkD9AL5hhjWToHSurcVY9tUuWph
uJE2yijG67jyLN5KDV3Xa829nN/13g8hkRupTinGBsSv8hcL4l+SGsXblJ2HYX5x
8YWHmQMCAwEAAaOBlTCBkjAJBgNVHRMEAjAAMCwGCWCGSAGG+EIBDQQfFh1PcGVu
U1NMIEdlbmVyYXRlZCBDZXJ0aWZpY2F0ZTAdBgNVHQ4EFgQUsubVD8BQSYFLSKHz
Kf0Fqbr1AYAwOAYDVR0jBDEwL6EipCAwHjELMAkGA1UEBhMCS1IxDzANBgNVBAMM
BmhhblhlboIJAJcu9gnU6lREMA0GCSqGSIb3DQEBCwUAA4GBAHkKLxJqbSKduMPQ
6uF4ebvjnrvKa2n6FtSw3GrYXFl1NKXrdsqyYpjZ43v/ANKFiFbNKfLyHDVBroke
vW8QAEfglGuMQMvW7SVT5/hk1m/XvC9kjH21geTlkc4+Ur0mF/YrsIjdgCNMEDgD
unOhxPJKgbXrZuwSABvFxPjZuU0H
-----END CERTIFICATE-----
