-----BEGIN RSA PRIVATE KEY-----
MIICWwIBAAKBgQCwSW1VsfGN611xxXPA/aG/r+Y9tlhNErQPSGqLvH9YJR6qo4Dr
w4IpDFC54ohJkodDTlCNM8g5GlMrrRZEfg1QyewxCRnrt1+21MTc4gZEbwHd8URC
jjqq0XAhOV4GOXxxIAjVAA8h6YRBGwIPZrg5ifSC0GaGNuSXWYAvIVucawIDAQAB
AoGAPwVw/dLIfSjoVhT1pcfGfGWg1O0MMjl+f3wvAteXWuaiSPR80UwqiwwpC9sN
R+gHTSuBJomdibR8iT+ulzvM/D3V9te6sRoa66zxhHX3QbydTIaAv6smshGwVh2p
ogvwvk4c4RwfDr6V1ariPq2wdEQqCSNzgsfgCbH2xd+G/tkCQQDZKZbsHhASRd27
/8nHeD3wPO5N02//LYuchoXUUywfuoNZnNnkp/6Es0K3yn8dHipgZmEFXe+7ocpc
eEaWXR1PAkEAz9Bqses6wKWRubpXGxUU7kDXsH667795kNKpyPrm+hKWJSSKR1ZH
qcdohV/o1m8FDGZP4yFutE+UIxrmj9ugJQJAKBdQgIjQSL9TPzjqxIODU8275OxK
+d4rrxr6rAcq1zS0uR+G7nrBNzhs8cdVjkeaZS+ha7862fX1iPq/dVT9awJABXkZ
tkHZtEUoB1ou/RmbCYNPquhLiBDk5LmHmzFwb9mZdrT1p1dQX9pOmGSkPzGBUohH
RlYVEk6eOiZ1OAiyuQJAHy2E+9KhvuXJXoYSCFPghKV8rFTCvLCQdNnDG/q7Y634
rzsvmdsoBf/uEwI+GpNTkT5phjC0PpcGVE/xoGhBsw==
-----END RSA PRIVATE KEY-----
Certificate:
    Data:
        Version: 3 (0x2)
        Serial Number: 2 (0x2)
    Signature Algorithm: sha256WithRSAEncryption
        Issuer: C=KR, CN=hanXen
        Validity
            Not Before: Mar  1 00:00:00 2014 GMT
            Not After : Feb 27 00:00:00 2024 GMT
        Subject: C=KR, CN=www.facebook.com
        Subject Public Key Info:
            Public Key Algorithm: rsaEncryption
                Public-Key: (1024 bit)
                Modulus:
                    00:b0:49:6d:55:b1:f1:8d:eb:5d:71:c5:73:c0:fd:
                    a1:bf:af:e6:3d:b6:58:4d:12:b4:0f:48:6a:8b:bc:
                    7f:58:25:1e:aa:a3:80:eb:c3:82:29:0c:50:b9:e2:
                    88:49:92:87:43:4e:50:8d:33:c8:39:1a:53:2b:ad:
                    16:44:7e:0d:50:c9:ec:31:09:19:eb:b7:5f:b6:d4:
                    c4:dc:e2:06:44:6f:01:dd:f1:44:42:8e:3a:aa:d1:
                    70:21:39:5e:06:39:7c:71:20:08:d5:00:0f:21:e9:
                    84:41:1b:02:0f:66:b8:39:89:f4:82:d0:66:86:36:
                    e4:97:59:80:2f:21:5b:9c:6b
                Exponent: 65537 (0x10001)
        X509v3 extensions:
            X509v3 Basic Constraints: 
                CA:FALSE
            Netscape Comment: 
                OpenSSL Generated Certificate
            X509v3 Subject Key Identifier: 
                32:AD:AC:F1:EE:7B:63:B3:76:E9:BD:A7:87:9A:81:D6:8B:FB:D8:60
            X509v3 Authority Key Identifier: 
                DirName:/C=KR/CN=hanXen
                serial:97:2E:F6:09:D4:EA:54:44

    Signature Algorithm: sha256WithRSAEncryption
         6a:f3:a7:01:ca:eb:4e:30:7d:01:9b:11:99:8f:e6:07:a4:57:
         89:1a:6f:12:09:84:5d:73:82:d7:72:19:16:06:99:66:56:17:
         95:6f:4b:8b:58:62:a0:67:87:c9:12:ad:f8:65:43:50:d9:2b:
         8e:87:d6:16:90:c4:83:3d:07:60:94:dc:ce:88:96:f2:a2:d4:
         4b:54:ea:63:9f:0f:88:0c:e3:90:ab:82:57:0f:3a:c1:6a:da:
         15:2c:25:e3:37:c7:46:6d:71:8c:bb:5d:d3:76:16:c8:fa:11:
         94:34:fa:04:99:c9:81:46:74:14:05:02:b8:34:2e:16:3b:3f:
         fa:d3
-----BEGIN CERTIFICATE-----
MIICVjCCAb+gAwIBAgIBAjANBgkqhkiG9w0BAQsFADAeMQswCQYDVQQGEwJLUjEP
MA0GA1UEAwwGaGFuWGVuMCIYDzIwMTQwMzAxMDAwMDAwWhgPMjAyNDAyMjcwMDAw
MDBaMCgxCzAJBgNVBAYTAktSMRkwFwYDVQQDDBB3d3cuZmFjZWJvb2suY29tMIGf
MA0GCSqGSIb3DQEBAQUAA4GNADCBiQKBgQCwSW1VsfGN611xxXPA/aG/r+Y9tlhN
ErQPSGqLvH9YJR6qo4Drw4IpDFC54ohJkodDTlCNM8g5GlMrrRZEfg1QyewxCRnr
t1+21MTc4gZEbwHd8URCjjqq0XAhOV4GOXxxIAjVAA8h6YRBGwIPZrg5ifSC0GaG
NuSXWYAvIVucawIDAQABo4GVMIGSMAkGA1UdEwQCMAAwLAYJYIZIAYb4QgENBB8W
HU9wZW5TU0wgR2VuZXJhdGVkIENlcnRpZmljYXRlMB0GA1UdDgQWBBQyrazx7ntj
s3bpvaeHmoHWi/vYYDA4BgNVHSMEMTAvoSKkIDAeMQswCQYDVQQGEwJLUjEPMA0G
A1UEAwwGaGFuWGVuggkAly72CdTqVEQwDQYJKoZIhvcNAQELBQADgYEAavOnAcrr
TjB9AZsRmY/mB6RXiRpvEgmEXXOC13IZFgaZZlYXlW9Li1hioGeHyRKt+GVDUNkr
jofWFpDEgz0HYJTczoiW8qLUS1TqY58PiAzjkKuCVw86wWraFSwl4zfHRm1xjLtd
03YWyPoRlDT6BJnJgUZ0FAUCuDQuFjs/+tM=
-----END CERTIFICATE-----
