Certificate:
    Data:
        Version: 3 (0x2)
        Serial Number: 1 (0x1)
    Signature Algorithm: sha256WithRSAEncryption
        Issuer: C=KR, CN=hanXen
        Validity
            Not Before: Mar  1 00:00:00 2014 GMT
            Not After : Feb 27 00:00:00 2024 GMT
        Subject: C=KR, CN=proxy
        Subject Public Key Info:
            Public Key Algorithm: rsaEncryption
                Public-Key: (1024 bit)
                Modulus:
                    00:c4:a6:46:fd:5e:ff:c5:f3:7e:64:bb:6c:e9:96:
                    5f:f7:cc:b6:89:11:4d:6a:62:db:ae:a1:35:7f:a3:
                    fa:79:49:71:64:fa:5f:4d:d5:27:2a:24:6b:81:6f:
                    e7:b0:63:44:74:ca:5f:bf:cd:a3:b5:1a:c3:9e:7b:
                    71:f8:51:99:fe:ce:a0:a1:3d:1f:40:e6:65:9c:70:
                    3f:60:72:c0:47:c6:cf:06:81:f8:56:9a:35:8b:0f:
                    11:3c:41:9b:02:9c:fa:80:eb:58:9a:2a:d1:00:26:
                    ed:ce:ba:db:b6:15:a6:fb:e6:4a:cc:9d:24:1a:99:
                    e8:ed:f4:dd:78:00:f3:c0:39
                Exponent: 65537 (0x10001)
        X509v3 extensions:
            X509v3 Basic Constraints: 
                CA:FALSE
            Netscape Comment: 
                OpenSSL Generated Certificate
            X509v3 Subject Key Identifier: 
                03:36:EC:2D:40:C5:67:50:AD:BA:17:99:9C:F5:D5:E7:D5:72:29:68
            X509v3 Authority Key Identifier: 
                DirName:/C=KR/CN=hanXen
                serial:97:2E:F6:09:D4:EA:54:44

    Signature Algorithm: sha256WithRSAEncryption
         4b:bc:44:c5:84:d2:4e:83:fe:81:33:d6:a9:8b:37:61:2d:c3:
         29:bd:73:bf:4b:1f:04:45:4f:a9:b5:12:81:1a:6d:04:3f:77:
         17:94:5a:76:ee:3a:75:a3:3a:a4:27:c0:7d:40:0d:d6:a5:e9:
         cc:c9:ac:43:7a:23:f3:be:47:1f:79:f1:09:49:8f:ba:6c:2a:
         31:71:2d:e1:63:53:0b:90:10:d8:ec:5a:4f:4f:c2:11:9a:9d:
         ad:5f:42:f3:38:39:82:73:75:d3:55:2d:53:d1:b6:e3:35:18:
         a7:3e:d5:38:d0:93:fe:fe:9b:07:7c:75:a8:02:f7:76:d4:be:
         71:b5
-----BEGIN CERTIFICATE-----
MIICSzCCAbSgAwIBAgIBATANBgkqhkiG9w0BAQsFADAeMQswCQYDVQQGEwJLUjEP
MA0GA1UEAwwGaGFuWGVuMCIYDzIwMTQwMzAxMDAwMDAwWhgPMjAyNDAyMjcwMDAw
MDBaMB0xCzAJBgNVBAYTAktSMQ4wDAYDVQQDDAVwcm94eTCBnzANBgkqhkiG9w0B
AQEFAAOBjQAwgYkCgYEAxKZG/V7/xfN+ZLts6ZZf98y2iRFNamLbrqE1f6P6eUlx
ZPpfTdUnKiRrgW/nsGNEdMpfv82jtRrDnntx+FGZ/s6goT0fQOZlnHA/YHLAR8bP
BoH4Vpo1iw8RPEGbApz6gOtYmirRACbtzrrbthWm++ZKzJ0kGpno7fTdeADzwDkC
AwEAAaOBlTCBkjAJBgNVHRMEAjAAMCwGCWCGSAGG+EIBDQQfFh1PcGVuU1NMIEdl
bmVyYXRlZCBDZXJ0aWZpY2F0ZTAdBgNVHQ4EFgQUAzbsLUDFZ1CtuheZnPXV59Vy
KWgwOAYDVR0jBDEwL6EipCAwHjELMAkGA1UEBhMCS1IxDzANBgNVBAMMBmhhblhl
boIJAJcu9gnU6lREMA0GCSqGSIb3DQEBCwUAA4GBAEu8RMWE0k6D/oEz1qmLN2Et
wym9c79LHwRFT6m1EoEabQQ/dxeUWnbuOnWjOqQnwH1ADdal6czJrEN6I/O+Rx95
8QlJj7psKjFxLeFjUwuQENjsWk9PwhGana1fQvM4OYJzddNVLVPRtuM1GKc+1TjQ
k/7+mwd8dagC93bUvnG1
-----END CERTIFICATE-----
