Certificate:
    Data:
        Version: 3 (0x2)
        Serial Number: 4 (0x4)
    Signature Algorithm: sha256WithRSAEncryption
        Issuer: C=KR, CN=hanXen
        Validity
            Not Before: Mar  1 00:00:00 2014 GMT
            Not After : Feb 27 00:00:00 2024 GMT
        Subject: C=KR, CN=incoming.telemetry.mozilla.org
        Subject Public Key Info:
            Public Key Algorithm: rsaEncryption
                Public-Key: (1024 bit)
                Modulus:
                    00:c5:6a:d5:ce:74:1c:3b:47:80:6e:0e:21:7a:6a:
                    a3:fd:cc:a6:d1:63:01:a1:77:d5:18:a9:09:3a:c4:
                    28:15:ed:79:6f:ce:6e:10:a5:60:8d:47:a6:b4:11:
                    21:39:58:50:71:11:c5:7d:72:26:82:43:02:f9:af:
                    31:25:3c:60:0f:81:55:c3:7d:f1:92:de:0a:b2:52:
                    6a:c6:3e:5a:4e:1b:90:b9:72:43:a7:44:78:de:d7:
                    1a:d0:9e:a5:c3:93:42:2c:b4:f5:1b:f2:c3:74:ea:
                    04:80:0a:0d:19:83:6b:7b:39:fb:bd:82:85:7f:54:
                    04:58:03:f1:69:a4:25:28:c5
                Exponent: 65537 (0x10001)
        X509v3 extensions:
            X509v3 Basic Constraints: 
                CA:FALSE
            Netscape Comment: 
                OpenSSL Generated Certificate
            X509v3 Subject Key Identifier: 
                ED:3C:8E:92:CA:5F:AB:07:72:1E:E4:0A:69:10:8D:43:1C:F0:6D:CA
            X509v3 Authority Key Identifier: 
                DirName:/C=KR/CN=hanXen
                serial:97:2E:F6:09:D4:EA:54:44

    Signature Algorithm: sha256WithRSAEncryption
         94:6e:97:e4:59:65:68:86:5f:07:01:4f:dc:67:b5:c2:dd:7a:
         bf:d8:47:eb:d7:97:b3:e4:5d:78:ff:ab:9e:8d:60:21:e8:4d:
         8a:f2:ae:2e:f3:9d:4b:77:9d:7f:e3:3e:48:28:c9:26:3f:d6:
         cf:f2:85:93:84:94:46:ce:89:b6:9b:45:d0:77:c3:71:75:1d:
         cd:0f:8b:20:06:b9:ec:65:b9:59:55:c6:76:4c:c5:b6:3f:1d:
         8b:52:0d:67:9b:b6:2c:0a:be:8c:fb:e7:e6:16:dd:8c:1a:60:
         35:eb:68:9a:8e:58:73:0b:62:90:04:e5:da:88:3d:9e:1c:ce:
         7f:35
-----BEGIN CERTIFICATE-----
MIICZDCCAc2gAwIBAgIBBDANBgkqhkiG9w0BAQsFADAeMQswCQYDVQQGEwJLUjEP
MA0GA1UEAwwGaGFuWGVuMCIYDzIwMTQwMzAxMDAwMDAwWhgPMjAyNDAyMjcwMDAw
MDBaMDYxCzAJBgNVBAYTAktSMScwJQYDVQQDDB5pbmNvbWluZy50ZWxlbWV0cnku
bW96aWxsYS5vcmcwgZ8wDQYJKoZIhvcNAQEBBQADgY0AMIGJAoGBAMVq1c50HDtH
gG4OIXpqo/3MptFjAaF31RipCTrEKBXteW/ObhClYI1HprQRITlYUHERxX1yJoJD
AvmvMSU8YA+BVcN98ZLeCrJSasY+Wk4bkLlyQ6dEeN7XGtCepcOTQiy09Rvyw3Tq
BIAKDRmDa3s5+72ChX9UBFgD8WmkJSjFAgMBAAGjgZUwgZIwCQYDVR0TBAIwADAs
BglghkgBhvhCAQ0EHxYdT3BlblNTTCBHZW5lcmF0ZWQgQ2VydGlmaWNhdGUwHQYD
VR0OBBYEFO08jpLKX6sHch7kCmkQjUMc8G3KMDgGA1UdIwQxMC+hIqQgMB4xCzAJ
BgNVBAYTAktSMQ8wDQYDVQQDDAZoYW5YZW6CCQCXLvYJ1OpURDANBgkqhkiG9w0B
AQsFAAOBgQCUbpfkWWVohl8HAU/cZ7XC3Xq/2Efr15ez5F14/6uejWAh6E2K8q4u
851Ld51/4z5IKMkmP9bP8oWThJRGzom2m0XQd8NxdR3ND4sgBrnsZblZVcZ2TMW2
Px2LUg1nm7YsCr6M++fmFt2MGmA162iajlhzC2KQBOXaiD2eHM5/NQ==
-----END CERTIFICATE-----
